; Function Attrs: nounwind uwtable
define dso_local i32 @uv_udp_send(ptr noundef %0, ptr noundef %1, ptr noundef %2, i32 noundef %3, ptr noundef %4, ptr noundef %5) local_unnamed_addr #0 {
  %7 = getelementptr inbounds nuw i8, ptr %1, i64 16
  %8 = load i32, ptr %7, align 8
  %.not.i = icmp eq i32 %8, 15
  br i1 %.not.i, label %9, label %uv__udp_check_before_send.exit.thread

9:                                                ; preds = %6
  %cond.i = icmp eq ptr %4, null
  %10 = getelementptr inbounds nuw i8, ptr %1, i64 88
  %11 = load i32, ptr %10, align 8
  %12 = and i32 %11, 33554432
  %.not15.i = icmp eq i32 %12, 0
  br i1 %cond.i, label %14, label %13

13:                                               ; preds = %9
  br i1 %.not15.i, label %15, label %uv__udp_check_before_send.exit.thread

14:                                               ; preds = %9
  br i1 %.not15.i, label %uv__udp_check_before_send.exit.thread, label %uv__udp_check_before_send.exit

15:                                               ; preds = %13
  %16 = load i16, ptr %4, align 2
  switch i16 %16, label %uv__udp_check_before_send.exit.thread [
    i16 2, label %18
    i16 10, label %uv__udp_check_before_send.exit
    i16 1, label %17
  ]

17:                                               ; preds = %15
  br label %uv__udp_check_before_send.exit

18:                                               ; preds = %15
  br label %uv__udp_check_before_send.exit

uv__udp_check_before_send.exit:                   ; preds = %15, %18, %17, %14
  %.010.i = phi i32 [ 0, %14 ], [ 110, %17 ], [ 16, %18 ], [ 28, %15 ]
  %19 = tail call i32 @uv__udp_send(ptr noundef %0, ptr noundef nonnull %1, ptr noundef %2, i32 noundef %3, ptr noundef %4, i32 noundef %.010.i, ptr noundef %5) #26
  br label %uv__udp_check_before_send.exit.thread

uv__udp_check_before_send.exit.thread:            ; preds = %14, %15, %13, %6, %uv__udp_check_before_send.exit
  %.0 = phi i32 [ %19, %uv__udp_check_before_send.exit ], [ -22, %15 ], [ -106, %13 ], [ -22, %6 ], [ -89, %14 ]
  ret i32 %.0
}